GAS LISTING /tmp/ccAJyxY4.s 			page 1


   1              		.file	"gameboy.c"
   2              		.text
   3              	.Ltext0:
   4              		.file 0 "/home/duys/Documents/cbc" "gameboy.c"
   5              		.section	.rodata
   6              	.LC0:
   7 0000 726200   		.string	"rb"
   8              	.LC1:
   9 0003 4572726F 		.string	"Error: File not found"
   9      723A2046 
   9      696C6520 
   9      6E6F7420 
   9      666F756E 
  10              	.LC2:
  11 0019 4572726F 		.string	"Error: Buffer is NULL"
  11      723A2042 
  11      75666665 
  11      72206973 
  11      204E554C 
  12              	.LC3:
  13 002f 4572726F 		.string	"Error: Buffer is too small"
  13      723A2042 
  13      75666665 
  13      72206973 
  13      20746F6F 
  14              	.LC4:
  15 004a 46696C65 		.string	"File size: %ld\n"
  15      2073697A 
  15      653A2025 
  15      6C640A00 
  16              	.LC5:
  17 005a 42756666 		.string	"Buffer size: %ld\n"
  17      65722073 
  17      697A653A 
  17      20256C64 
  17      0A00
  18              	.LC6:
  19 006c 4572726F 		.string	"Error: Reading file failed"
  19      723A2052 
  19      65616469 
  19      6E672066 
  19      696C6520 
  20              		.text
  21              		.globl	read_file_into_buffer
  22              		.type	read_file_into_buffer, @function
  23              	read_file_into_buffer:
  24              	.LFB6:
  25              		.file 1 "gameboy.c"
   1:gameboy.c     **** #include <stdio.h>
   2:gameboy.c     **** #include <stdint.h>
   3:gameboy.c     **** #include <stdlib.h> 
   4:gameboy.c     **** #include <time.h>
   5:gameboy.c     **** #include <string.h>
   6:gameboy.c     **** 
   7:gameboy.c     **** #include "defs.h"
   8:gameboy.c     **** #include "gameboy.h"
   9:gameboy.c     **** #include "opcodes.h"
GAS LISTING /tmp/ccAJyxY4.s 			page 2


  10:gameboy.c     **** 
  11:gameboy.c     **** /*-------------------- UTILS --------------------------- */
  12:gameboy.c     **** 
  13:gameboy.c     **** long read_file_into_buffer(const char *filename, uint8_t *buffer, long buffer_size) {
  26              		.loc 1 13 85
  27              		.cfi_startproc
  28 0000 F30F1EFA 		endbr64
  29 0004 55       		pushq	%rbp
  30              		.cfi_def_cfa_offset 16
  31              		.cfi_offset 6, -16
  32 0005 4889E5   		movq	%rsp, %rbp
  33              		.cfi_def_cfa_register 6
  34 0008 4883EC40 		subq	$64, %rsp
  35 000c 48897DD8 		movq	%rdi, -40(%rbp)
  36 0010 488975D0 		movq	%rsi, -48(%rbp)
  37 0014 488955C8 		movq	%rdx, -56(%rbp)
  14:gameboy.c     ****     long file_size;
  15:gameboy.c     ****     FILE *file;
  16:gameboy.c     ****     file = fopen(filename, "rb");
  38              		.loc 1 16 12
  39 0018 488B45D8 		movq	-40(%rbp), %rax
  40 001c 488D1500 		leaq	.LC0(%rip), %rdx
  40      000000
  41 0023 4889D6   		movq	%rdx, %rsi
  42 0026 4889C7   		movq	%rax, %rdi
  43 0029 E8000000 		call	fopen@PLT
  43      00
  44 002e 488945E8 		movq	%rax, -24(%rbp)
  17:gameboy.c     **** 
  18:gameboy.c     ****     if (file == NULL) {
  45              		.loc 1 18 8
  46 0032 48837DE8 		cmpq	$0, -24(%rbp)
  46      00
  47 0037 751B     		jne	.L2
  19:gameboy.c     ****         printf("Error: File not found\n");
  48              		.loc 1 19 9
  49 0039 488D0500 		leaq	.LC1(%rip), %rax
  49      000000
  50 0040 4889C7   		movq	%rax, %rdi
  51 0043 E8000000 		call	puts@PLT
  51      00
  20:gameboy.c     ****         return -1;
  52              		.loc 1 20 16
  53 0048 48C7C0FF 		movq	$-1, %rax
  53      FFFFFF
  54 004f E92B0100 		jmp	.L3
  54      00
  55              	.L2:
  21:gameboy.c     ****     }
  22:gameboy.c     **** 
  23:gameboy.c     ****     // get the file size
  24:gameboy.c     ****     fseek(file, 0, SEEK_END);
  56              		.loc 1 24 5
  57 0054 488B45E8 		movq	-24(%rbp), %rax
  58 0058 BA020000 		movl	$2, %edx
  58      00
  59 005d BE000000 		movl	$0, %esi
GAS LISTING /tmp/ccAJyxY4.s 			page 3


  59      00
  60 0062 4889C7   		movq	%rax, %rdi
  61 0065 E8000000 		call	fseek@PLT
  61      00
  25:gameboy.c     ****     file_size = ftell(file);
  62              		.loc 1 25 17
  63 006a 488B45E8 		movq	-24(%rbp), %rax
  64 006e 4889C7   		movq	%rax, %rdi
  65 0071 E8000000 		call	ftell@PLT
  65      00
  66 0076 488945F0 		movq	%rax, -16(%rbp)
  26:gameboy.c     ****     rewind(file);
  67              		.loc 1 26 5
  68 007a 488B45E8 		movq	-24(%rbp), %rax
  69 007e 4889C7   		movq	%rax, %rdi
  70 0081 E8000000 		call	rewind@PLT
  70      00
  27:gameboy.c     **** 
  28:gameboy.c     ****     // check if buffer is large enough
  29:gameboy.c     ****     if (buffer == NULL) {
  71              		.loc 1 29 8
  72 0086 48837DD0 		cmpq	$0, -48(%rbp)
  72      00
  73 008b 7527     		jne	.L4
  30:gameboy.c     ****         printf("Error: Buffer is NULL\n");
  74              		.loc 1 30 9
  75 008d 488D0500 		leaq	.LC2(%rip), %rax
  75      000000
  76 0094 4889C7   		movq	%rax, %rdi
  77 0097 E8000000 		call	puts@PLT
  77      00
  31:gameboy.c     ****         fclose(file);
  78              		.loc 1 31 9
  79 009c 488B45E8 		movq	-24(%rbp), %rax
  80 00a0 4889C7   		movq	%rax, %rdi
  81 00a3 E8000000 		call	fclose@PLT
  81      00
  32:gameboy.c     ****         return -1;
  82              		.loc 1 32 16
  83 00a8 48C7C0FF 		movq	$-1, %rax
  83      FFFFFF
  84 00af E9CB0000 		jmp	.L3
  84      00
  85              	.L4:
  33:gameboy.c     ****     }
  34:gameboy.c     **** 
  35:gameboy.c     **** 
  36:gameboy.c     ****     if (buffer_size < file_size) {
  86              		.loc 1 36 8
  87 00b4 488B45C8 		movq	-56(%rbp), %rax
  88 00b8 483B45F0 		cmpq	-16(%rbp), %rax
  89 00bc 7D5A     		jge	.L5
  37:gameboy.c     ****         printf("Error: Buffer is too small\n");
  90              		.loc 1 37 9
  91 00be 488D0500 		leaq	.LC3(%rip), %rax
  91      000000
  92 00c5 4889C7   		movq	%rax, %rdi
GAS LISTING /tmp/ccAJyxY4.s 			page 4


  93 00c8 E8000000 		call	puts@PLT
  93      00
  38:gameboy.c     ****         printf("File size: %ld\n", file_size);
  94              		.loc 1 38 9
  95 00cd 488B45F0 		movq	-16(%rbp), %rax
  96 00d1 4889C6   		movq	%rax, %rsi
  97 00d4 488D0500 		leaq	.LC4(%rip), %rax
  97      000000
  98 00db 4889C7   		movq	%rax, %rdi
  99 00de B8000000 		movl	$0, %eax
  99      00
 100 00e3 E8000000 		call	printf@PLT
 100      00
  39:gameboy.c     ****         printf("Buffer size: %ld\n", buffer_size);
 101              		.loc 1 39 9
 102 00e8 488B45C8 		movq	-56(%rbp), %rax
 103 00ec 4889C6   		movq	%rax, %rsi
 104 00ef 488D0500 		leaq	.LC5(%rip), %rax
 104      000000
 105 00f6 4889C7   		movq	%rax, %rdi
 106 00f9 B8000000 		movl	$0, %eax
 106      00
 107 00fe E8000000 		call	printf@PLT
 107      00
  40:gameboy.c     ****         fclose(file);
 108              		.loc 1 40 9
 109 0103 488B45E8 		movq	-24(%rbp), %rax
 110 0107 4889C7   		movq	%rax, %rdi
 111 010a E8000000 		call	fclose@PLT
 111      00
  41:gameboy.c     ****         return -1;
 112              		.loc 1 41 16
 113 010f 48C7C0FF 		movq	$-1, %rax
 113      FFFFFF
 114 0116 EB67     		jmp	.L3
 115              	.L5:
  42:gameboy.c     ****     }
  43:gameboy.c     **** 
  44:gameboy.c     ****     // read the file into the buffer
  45:gameboy.c     ****     size_t result = fread(buffer, 1, file_size, file);
 116              		.loc 1 45 21
 117 0118 488B55F0 		movq	-16(%rbp), %rdx
 118 011c 488B4DE8 		movq	-24(%rbp), %rcx
 119 0120 488B45D0 		movq	-48(%rbp), %rax
 120 0124 BE010000 		movl	$1, %esi
 120      00
 121 0129 4889C7   		movq	%rax, %rdi
 122 012c E8000000 		call	fread@PLT
 122      00
 123 0131 488945F8 		movq	%rax, -8(%rbp)
  46:gameboy.c     ****     if (result != file_size){
 124              		.loc 1 46 16
 125 0135 488B45F0 		movq	-16(%rbp), %rax
 126              		.loc 1 46 8
 127 0139 483945F8 		cmpq	%rax, -8(%rbp)
 128 013d 7430     		je	.L6
  47:gameboy.c     ****         printf("Error: Reading file failed\n");
GAS LISTING /tmp/ccAJyxY4.s 			page 5


 129              		.loc 1 47 9
 130 013f 488D0500 		leaq	.LC6(%rip), %rax
 130      000000
 131 0146 4889C7   		movq	%rax, %rdi
 132 0149 E8000000 		call	puts@PLT
 132      00
  48:gameboy.c     ****         fclose(file);
 133              		.loc 1 48 9
 134 014e 488B45E8 		movq	-24(%rbp), %rax
 135 0152 4889C7   		movq	%rax, %rdi
 136 0155 E8000000 		call	fclose@PLT
 136      00
  49:gameboy.c     ****         free(buffer);
 137              		.loc 1 49 9
 138 015a 488B45D0 		movq	-48(%rbp), %rax
 139 015e 4889C7   		movq	%rax, %rdi
 140 0161 E8000000 		call	free@PLT
 140      00
  50:gameboy.c     ****         return -1;
 141              		.loc 1 50 16
 142 0166 48C7C0FF 		movq	$-1, %rax
 142      FFFFFF
 143 016d EB10     		jmp	.L3
 144              	.L6:
  51:gameboy.c     ****     }  
  52:gameboy.c     ****     fclose(file);
 145              		.loc 1 52 5
 146 016f 488B45E8 		movq	-24(%rbp), %rax
 147 0173 4889C7   		movq	%rax, %rdi
 148 0176 E8000000 		call	fclose@PLT
 148      00
  53:gameboy.c     ****     return file_size;
 149              		.loc 1 53 12
 150 017b 488B45F0 		movq	-16(%rbp), %rax
 151              	.L3:
  54:gameboy.c     **** }
 152              		.loc 1 54 1
 153 017f C9       		leave
 154              		.cfi_def_cfa 7, 8
 155 0180 C3       		ret
 156              		.cfi_endproc
 157              	.LFE6:
 158              		.size	read_file_into_buffer, .-read_file_into_buffer
 159              		.globl	create_buffer8
 160              		.type	create_buffer8, @function
 161              	create_buffer8:
 162              	.LFB7:
  55:gameboy.c     **** 
  56:gameboy.c     **** 
  57:gameboy.c     **** uint8_t* create_buffer8(uint32_t size, bool randomize) {
 163              		.loc 1 57 56
 164              		.cfi_startproc
 165 0181 F30F1EFA 		endbr64
 166 0185 55       		pushq	%rbp
 167              		.cfi_def_cfa_offset 16
 168              		.cfi_offset 6, -16
 169 0186 4889E5   		movq	%rsp, %rbp
GAS LISTING /tmp/ccAJyxY4.s 			page 6


 170              		.cfi_def_cfa_register 6
 171 0189 4883EC20 		subq	$32, %rsp
 172 018d 897DEC   		movl	%edi, -20(%rbp)
 173 0190 89F0     		movl	%esi, %eax
 174 0192 8845E8   		movb	%al, -24(%rbp)
  58:gameboy.c     ****     uint8_t *ptr = (uint8_t *)calloc(size, sizeof(uint8_t));
 175              		.loc 1 58 31
 176 0195 8B45EC   		movl	-20(%rbp), %eax
 177 0198 BE010000 		movl	$1, %esi
 177      00
 178 019d 4889C7   		movq	%rax, %rdi
 179 01a0 E8000000 		call	calloc@PLT
 179      00
 180 01a5 488945F8 		movq	%rax, -8(%rbp)
  59:gameboy.c     **** 
  60:gameboy.c     ****     if (randomize){
 181              		.loc 1 60 8
 182 01a9 807DE800 		cmpb	$0, -24(%rbp)
 183 01ad 7438     		je	.L8
 184              	.LBB2:
  61:gameboy.c     ****         // randomize the buffer
  62:gameboy.c     ****         for (int i = 0; i < size; i++) {
 185              		.loc 1 62 18
 186 01af C745F400 		movl	$0, -12(%rbp)
 186      000000
 187              		.loc 1 62 9
 188 01b6 EB27     		jmp	.L9
 189              	.L10:
  63:gameboy.c     ****             ptr[i] = (uint8_t)(rand() % 256);
 190              		.loc 1 63 32 discriminator 3
 191 01b8 E8000000 		call	rand@PLT
 191      00
 192              		.loc 1 63 39 discriminator 3
 193 01bd 99       		cltd
 194 01be C1EA18   		shrl	$24, %edx
 195 01c1 01D0     		addl	%edx, %eax
 196 01c3 0FB6C0   		movzbl	%al, %eax
 197 01c6 29D0     		subl	%edx, %eax
 198 01c8 89C1     		movl	%eax, %ecx
 199              		.loc 1 63 16 discriminator 3
 200 01ca 8B45F4   		movl	-12(%rbp), %eax
 201 01cd 4863D0   		movslq	%eax, %rdx
 202 01d0 488B45F8 		movq	-8(%rbp), %rax
 203 01d4 4801D0   		addq	%rdx, %rax
 204              		.loc 1 63 22 discriminator 3
 205 01d7 89CA     		movl	%ecx, %edx
 206              		.loc 1 63 20 discriminator 3
 207 01d9 8810     		movb	%dl, (%rax)
  62:gameboy.c     ****             ptr[i] = (uint8_t)(rand() % 256);
 208              		.loc 1 62 36 discriminator 3
 209 01db 8345F401 		addl	$1, -12(%rbp)
 210              	.L9:
  62:gameboy.c     ****             ptr[i] = (uint8_t)(rand() % 256);
 211              		.loc 1 62 27 discriminator 1
 212 01df 8B45F4   		movl	-12(%rbp), %eax
 213 01e2 3945EC   		cmpl	%eax, -20(%rbp)
 214 01e5 77D1     		ja	.L10
GAS LISTING /tmp/ccAJyxY4.s 			page 7


 215              	.L8:
 216              	.LBE2:
  64:gameboy.c     ****         }
  65:gameboy.c     ****     }
  66:gameboy.c     **** 
  67:gameboy.c     ****     return ptr;
 217              		.loc 1 67 12
 218 01e7 488B45F8 		movq	-8(%rbp), %rax
  68:gameboy.c     **** }
 219              		.loc 1 68 1
 220 01eb C9       		leave
 221              		.cfi_def_cfa 7, 8
 222 01ec C3       		ret
 223              		.cfi_endproc
 224              	.LFE7:
 225              		.size	create_buffer8, .-create_buffer8
 226              		.globl	gameboy_init
 227              		.type	gameboy_init, @function
 228              	gameboy_init:
 229              	.LFB8:
  69:gameboy.c     **** 
  70:gameboy.c     **** /*-------------------- GAMEBOY FUNCTIONS --------------------------- */
  71:gameboy.c     **** void gameboy_init(GAMEBOY *gb, const char *filename) {
 230              		.loc 1 71 54
 231              		.cfi_startproc
 232 01ed F30F1EFA 		endbr64
 233 01f1 55       		pushq	%rbp
 234              		.cfi_def_cfa_offset 16
 235              		.cfi_offset 6, -16
 236 01f2 4889E5   		movq	%rsp, %rbp
 237              		.cfi_def_cfa_register 6
 238 01f5 4883EC30 		subq	$48, %rsp
 239 01f9 48897DD8 		movq	%rdi, -40(%rbp)
 240 01fd 488975D0 		movq	%rsi, -48(%rbp)
  72:gameboy.c     ****     srand(time(NULL));
 241              		.loc 1 72 11
 242 0201 BF000000 		movl	$0, %edi
 242      00
 243 0206 E8000000 		call	time@PLT
 243      00
 244              		.loc 1 72 5
 245 020b 89C7     		movl	%eax, %edi
 246 020d E8000000 		call	srand@PLT
 246      00
  73:gameboy.c     **** 
  74:gameboy.c     ****     init_cpu(gb);
 247              		.loc 1 74 5
 248 0212 488B45D8 		movq	-40(%rbp), %rax
 249 0216 4889C7   		movq	%rax, %rdi
 250 0219 E8000000 		call	init_cpu
 250      00
  75:gameboy.c     **** 
  76:gameboy.c     **** 
  77:gameboy.c     ****     uint32_t total_banks = 200;
 251              		.loc 1 77 14
 252 021e C745ECC8 		movl	$200, -20(%rbp)
 252      000000
GAS LISTING /tmp/ccAJyxY4.s 			page 8


  78:gameboy.c     ****     uint32_t total_rom_size = GAMEBOY_ROM_BANK_SIZE * total_banks;
 253              		.loc 1 78 14
 254 0225 8B45EC   		movl	-20(%rbp), %eax
 255 0228 C1E00E   		sall	$14, %eax
 256 022b 8945F0   		movl	%eax, -16(%rbp)
  79:gameboy.c     ****     uint32_t total_sram_size = GAMEBOY_RAM_BANK_SIZE * total_banks;
 257              		.loc 1 79 14
 258 022e 8B45EC   		movl	-20(%rbp), %eax
 259 0231 C1E00D   		sall	$13, %eax
 260 0234 8945F4   		movl	%eax, -12(%rbp)
  80:gameboy.c     ****     uint32_t total_vram_size = GAMEBOY_VRAM_BANK_SIZE * 2; //max two banks
 261              		.loc 1 80 14
 262 0237 C745F800 		movl	$16384, -8(%rbp)
 262      400000
  81:gameboy.c     ****     uint32_t total_wram_size = GAMEBOY_RAM_BANK_SIZE * 8; // 8 kb
 263              		.loc 1 81 14
 264 023e C745FC00 		movl	$65536, -4(%rbp)
 264      000100
  82:gameboy.c     **** 
  83:gameboy.c     ****     gb->rom = create_buffer8(total_rom_size, false); // 200 banks of 16 kb
 265              		.loc 1 83 15
 266 0245 8B45F0   		movl	-16(%rbp), %eax
 267 0248 BE000000 		movl	$0, %esi
 267      00
 268 024d 89C7     		movl	%eax, %edi
 269 024f E8000000 		call	create_buffer8
 269      00
 270              		.loc 1 83 13
 271 0254 488B55D8 		movq	-40(%rbp), %rdx
 272 0258 48894210 		movq	%rax, 16(%rdx)
  84:gameboy.c     ****     gb->sram = create_buffer8(total_sram_size, true); // 200 banks of 8 kb
 273              		.loc 1 84 16
 274 025c 8B45F4   		movl	-12(%rbp), %eax
 275 025f BE010000 		movl	$1, %esi
 275      00
 276 0264 89C7     		movl	%eax, %edi
 277 0266 E8000000 		call	create_buffer8
 277      00
 278              		.loc 1 84 14
 279 026b 488B55D8 		movq	-40(%rbp), %rdx
 280 026f 48894220 		movq	%rax, 32(%rdx)
  85:gameboy.c     ****     gb->vram = create_buffer8(total_vram_size, true); // 8 kb
 281              		.loc 1 85 16
 282 0273 8B45F8   		movl	-8(%rbp), %eax
 283 0276 BE010000 		movl	$1, %esi
 283      00
 284 027b 89C7     		movl	%eax, %edi
 285 027d E8000000 		call	create_buffer8
 285      00
 286              		.loc 1 85 14
 287 0282 488B55D8 		movq	-40(%rbp), %rdx
 288 0286 48894218 		movq	%rax, 24(%rdx)
  86:gameboy.c     **** 
  87:gameboy.c     ****     gb->current_sram_bank = 0;
 289              		.loc 1 87 27
 290 028a 488B45D8 		movq	-40(%rbp), %rax
 291 028e C6405100 		movb	$0, 81(%rax)
GAS LISTING /tmp/ccAJyxY4.s 			page 9


  88:gameboy.c     ****     gb->current_wram_bank = 0;
 292              		.loc 1 88 27
 293 0292 488B45D8 		movq	-40(%rbp), %rax
 294 0296 C6405200 		movb	$0, 82(%rax)
  89:gameboy.c     ****     gb->current_rom_bank = 0;
 295              		.loc 1 89 26
 296 029a 488B45D8 		movq	-40(%rbp), %rax
 297 029e C6405000 		movb	$0, 80(%rax)
  90:gameboy.c     ****     gb->current_vram_bank = 0;
 298              		.loc 1 90 27
 299 02a2 488B45D8 		movq	-40(%rbp), %rax
 300 02a6 C6405300 		movb	$0, 83(%rax)
  91:gameboy.c     **** 
  92:gameboy.c     ****     read_file_into_buffer(filename, gb->rom, total_rom_size);
 301              		.loc 1 92 5
 302 02aa 8B55F0   		movl	-16(%rbp), %edx
 303 02ad 488B45D8 		movq	-40(%rbp), %rax
 304 02b1 488B4810 		movq	16(%rax), %rcx
 305 02b5 488B45D0 		movq	-48(%rbp), %rax
 306 02b9 4889CE   		movq	%rcx, %rsi
 307 02bc 4889C7   		movq	%rax, %rdi
 308 02bf E8000000 		call	read_file_into_buffer
 308      00
  93:gameboy.c     **** }
 309              		.loc 1 93 1
 310 02c4 90       		nop
 311 02c5 C9       		leave
 312              		.cfi_def_cfa 7, 8
 313 02c6 C3       		ret
 314              		.cfi_endproc
 315              	.LFE8:
 316              		.size	gameboy_init, .-gameboy_init
 317              		.section	.rodata
 318 0087 00       		.align 8
 319              	.LC7:
 320 0088 4572726F 		.string	"Error: Memory allocation failed"
 320      723A204D 
 320      656D6F72 
 320      7920616C 
 320      6C6F6361 
 321              		.align 8
 322              	.LC8:
 323 00a8 0A413A20 		.string	"\nA: %02X\t F:%02X (%s)\nB: %02X\t C:%02X\nD: %02X\t E:%02X\nH: %02X\t L:%02X\nSP: %04X\t
 323      25303258 
 323      0920463A 
 323      25303258 
 323      20282573 
 324              	.LC9:
 325 0101 25303258 		.string	"%02X "
 325      2000
 326              		.text
 327              		.globl	gameboy_status
 328              		.type	gameboy_status, @function
 329              	gameboy_status:
 330              	.LFB9:
  94:gameboy.c     **** 
  95:gameboy.c     **** void gameboy_status(GAMEBOY *gb) {
GAS LISTING /tmp/ccAJyxY4.s 			page 10


 331              		.loc 1 95 34
 332              		.cfi_startproc
 333 02c7 F30F1EFA 		endbr64
 334 02cb 55       		pushq	%rbp
 335              		.cfi_def_cfa_offset 16
 336              		.cfi_offset 6, -16
 337 02cc 4889E5   		movq	%rsp, %rbp
 338              		.cfi_def_cfa_register 6
 339 02cf 4155     		pushq	%r13
 340 02d1 4154     		pushq	%r12
 341 02d3 53       		pushq	%rbx
 342 02d4 4881EC48 		subq	$1096, %rsp
 342      040000
 343              		.cfi_offset 13, -24
 344              		.cfi_offset 12, -32
 345              		.cfi_offset 3, -40
 346 02db 4889BDA8 		movq	%rdi, -1112(%rbp)
 346      FBFFFF
 347              		.loc 1 95 34
 348 02e2 64488B04 		movq	%fs:40, %rax
 348      25280000 
 348      00
 349 02eb 488945D8 		movq	%rax, -40(%rbp)
 350 02ef 31C0     		xorl	%eax, %eax
  96:gameboy.c     ****     // get binary rep of F
  97:gameboy.c     ****     // create a buffer to store string representation of gameboy status 
  98:gameboy.c     ****     char buffer[1024];
  99:gameboy.c     ****     char *f_binary = display_register(gb->f);
 351              		.loc 1 99 41
 352 02f1 488B85A8 		movq	-1112(%rbp), %rax
 352      FBFFFF
 353 02f8 0FB64001 		movzbl	1(%rax), %eax
 354              		.loc 1 99 22
 355 02fc 0FB6C0   		movzbl	%al, %eax
 356 02ff 89C7     		movl	%eax, %edi
 357 0301 E8000000 		call	display_register
 357      00
 358 0306 488985C0 		movq	%rax, -1088(%rbp)
 358      FBFFFF
 100:gameboy.c     ****     if (f_binary == NULL) {
 359              		.loc 1 100 8
 360 030d 4883BDC0 		cmpq	$0, -1088(%rbp)
 360      FBFFFF00 
 361 0315 7514     		jne	.L14
 101:gameboy.c     ****         printf("Error: Memory allocation failed\n");
 362              		.loc 1 101 9
 363 0317 488D0500 		leaq	.LC7(%rip), %rax
 363      000000
 364 031e 4889C7   		movq	%rax, %rdi
 365 0321 E8000000 		call	puts@PLT
 365      00
 366 0326 E9740100 		jmp	.L13
 366      00
 367              	.L14:
 102:gameboy.c     ****         return;
 103:gameboy.c     ****     }
 104:gameboy.c     **** 
GAS LISTING /tmp/ccAJyxY4.s 			page 11


 105:gameboy.c     ****     sprintf(buffer,
 106:gameboy.c     ****             "\nA: %02X\t F:%02X (%s)\n"
 107:gameboy.c     ****             "B: %02X\t C:%02X\n"
 108:gameboy.c     ****             "D: %02X\t E:%02X\n"
 109:gameboy.c     ****             "H: %02X\t L:%02X\n"
 110:gameboy.c     ****             "SP: %04X\t PC:%04X\n",
 111:gameboy.c     ****             gb->a, gb->f, f_binary,
 112:gameboy.c     ****             gb->b, gb->c,
 113:gameboy.c     ****             gb->d, gb->e,
 114:gameboy.c     ****             gb->h, gb->l,
 115:gameboy.c     ****             gb->sp, gb->pc);
 368              		.loc 1 115 23
 369 032b 488B85A8 		movq	-1112(%rbp), %rax
 369      FBFFFF
 370 0332 0FB7400A 		movzwl	10(%rax), %eax
 105:gameboy.c     ****             "\nA: %02X\t F:%02X (%s)\n"
 371              		.loc 1 105 5
 372 0336 0FB7D8   		movzwl	%ax, %ebx
 373              		.loc 1 115 15
 374 0339 488B85A8 		movq	-1112(%rbp), %rax
 374      FBFFFF
 375 0340 0FB74008 		movzwl	8(%rax), %eax
 105:gameboy.c     ****             "\nA: %02X\t F:%02X (%s)\n"
 376              		.loc 1 105 5
 377 0344 440FB7D8 		movzwl	%ax, %r11d
 114:gameboy.c     ****             gb->sp, gb->pc);
 378              		.loc 1 114 22
 379 0348 488B85A8 		movq	-1112(%rbp), %rax
 379      FBFFFF
 380 034f 0FB64007 		movzbl	7(%rax), %eax
 105:gameboy.c     ****             "\nA: %02X\t F:%02X (%s)\n"
 381              		.loc 1 105 5
 382 0353 440FB6D0 		movzbl	%al, %r10d
 114:gameboy.c     ****             gb->sp, gb->pc);
 383              		.loc 1 114 15
 384 0357 488B85A8 		movq	-1112(%rbp), %rax
 384      FBFFFF
 385 035e 0FB64006 		movzbl	6(%rax), %eax
 105:gameboy.c     ****             "\nA: %02X\t F:%02X (%s)\n"
 386              		.loc 1 105 5
 387 0362 440FB6C8 		movzbl	%al, %r9d
 113:gameboy.c     ****             gb->h, gb->l,
 388              		.loc 1 113 22
 389 0366 488B85A8 		movq	-1112(%rbp), %rax
 389      FBFFFF
 390 036d 0FB64005 		movzbl	5(%rax), %eax
 105:gameboy.c     ****             "\nA: %02X\t F:%02X (%s)\n"
 391              		.loc 1 105 5
 392 0371 440FB6C0 		movzbl	%al, %r8d
 113:gameboy.c     ****             gb->h, gb->l,
 393              		.loc 1 113 15
 394 0375 488B85A8 		movq	-1112(%rbp), %rax
 394      FBFFFF
 395 037c 0FB64004 		movzbl	4(%rax), %eax
 105:gameboy.c     ****             "\nA: %02X\t F:%02X (%s)\n"
 396              		.loc 1 105 5
 397 0380 0FB6F8   		movzbl	%al, %edi
GAS LISTING /tmp/ccAJyxY4.s 			page 12


 112:gameboy.c     ****             gb->d, gb->e,
 398              		.loc 1 112 22
 399 0383 488B85A8 		movq	-1112(%rbp), %rax
 399      FBFFFF
 400 038a 0FB64003 		movzbl	3(%rax), %eax
 105:gameboy.c     ****             "\nA: %02X\t F:%02X (%s)\n"
 401              		.loc 1 105 5
 402 038e 0FB6F0   		movzbl	%al, %esi
 112:gameboy.c     ****             gb->d, gb->e,
 403              		.loc 1 112 15
 404 0391 488B85A8 		movq	-1112(%rbp), %rax
 404      FBFFFF
 405 0398 0FB64002 		movzbl	2(%rax), %eax
 105:gameboy.c     ****             "\nA: %02X\t F:%02X (%s)\n"
 406              		.loc 1 105 5
 407 039c 440FB6E8 		movzbl	%al, %r13d
 111:gameboy.c     ****             gb->b, gb->c,
 408              		.loc 1 111 22
 409 03a0 488B85A8 		movq	-1112(%rbp), %rax
 409      FBFFFF
 410 03a7 0FB64001 		movzbl	1(%rax), %eax
 105:gameboy.c     ****             "\nA: %02X\t F:%02X (%s)\n"
 411              		.loc 1 105 5
 412 03ab 0FB6C8   		movzbl	%al, %ecx
 111:gameboy.c     ****             gb->b, gb->c,
 413              		.loc 1 111 15
 414 03ae 488B85A8 		movq	-1112(%rbp), %rax
 414      FBFFFF
 415 03b5 0FB600   		movzbl	(%rax), %eax
 105:gameboy.c     ****             "\nA: %02X\t F:%02X (%s)\n"
 416              		.loc 1 105 5
 417 03b8 0FB6D0   		movzbl	%al, %edx
 418 03bb 4C8BA5C0 		movq	-1088(%rbp), %r12
 418      FBFFFF
 419 03c2 488D85D0 		leaq	-1072(%rbp), %rax
 419      FBFFFF
 420 03c9 4883EC08 		subq	$8, %rsp
 421 03cd 53       		pushq	%rbx
 422 03ce 4153     		pushq	%r11
 423 03d0 4152     		pushq	%r10
 424 03d2 4151     		pushq	%r9
 425 03d4 4150     		pushq	%r8
 426 03d6 57       		pushq	%rdi
 427 03d7 56       		pushq	%rsi
 428 03d8 4589E9   		movl	%r13d, %r9d
 429 03db 4D89E0   		movq	%r12, %r8
 430 03de 488D3500 		leaq	.LC8(%rip), %rsi
 430      000000
 431 03e5 4889C7   		movq	%rax, %rdi
 432 03e8 B8000000 		movl	$0, %eax
 432      00
 433 03ed E8000000 		call	sprintf@PLT
 433      00
 434 03f2 4883C440 		addq	$64, %rsp
 116:gameboy.c     **** 
 117:gameboy.c     ****     // get the next 10 elements in ROM based on current PC
 118:gameboy.c     ****     Register16 *pc = &gb->pc;
GAS LISTING /tmp/ccAJyxY4.s 			page 13


 435              		.loc 1 118 17
 436 03f6 488B85A8 		movq	-1112(%rbp), %rax
 436      FBFFFF
 437 03fd 4883C00A 		addq	$10, %rax
 438 0401 488985C8 		movq	%rax, -1080(%rbp)
 438      FBFFFF
 439              	.LBB3:
 119:gameboy.c     ****     for (int i = 0; i < 10; i++) {
 440              		.loc 1 119 14
 441 0408 C785BCFB 		movl	$0, -1092(%rbp)
 441      FFFF0000 
 441      0000
 442              		.loc 1 119 5
 443 0412 EB64     		jmp	.L16
 444              	.L17:
 120:gameboy.c     ****         sprintf(buffer + strlen(buffer), "%02X ", gb->rom[*pc + i]);
 445              		.loc 1 120 53 discriminator 3
 446 0414 488B85A8 		movq	-1112(%rbp), %rax
 446      FBFFFF
 447 041b 488B5010 		movq	16(%rax), %rdx
 448              		.loc 1 120 59 discriminator 3
 449 041f 488B85C8 		movq	-1080(%rbp), %rax
 449      FBFFFF
 450 0426 0FB700   		movzwl	(%rax), %eax
 451 0429 0FB7C8   		movzwl	%ax, %ecx
 452              		.loc 1 120 63 discriminator 3
 453 042c 8B85BCFB 		movl	-1092(%rbp), %eax
 453      FFFF
 454 0432 01C8     		addl	%ecx, %eax
 455 0434 4898     		cltq
 456              		.loc 1 120 58 discriminator 3
 457 0436 4801D0   		addq	%rdx, %rax
 458 0439 0FB600   		movzbl	(%rax), %eax
 459              		.loc 1 120 9 discriminator 3
 460 043c 0FB6D8   		movzbl	%al, %ebx
 461              		.loc 1 120 26 discriminator 3
 462 043f 488D85D0 		leaq	-1072(%rbp), %rax
 462      FBFFFF
 463 0446 4889C7   		movq	%rax, %rdi
 464 0449 E8000000 		call	strlen@PLT
 464      00
 465              		.loc 1 120 9 discriminator 3
 466 044e 488D95D0 		leaq	-1072(%rbp), %rdx
 466      FBFFFF
 467 0455 4801D0   		addq	%rdx, %rax
 468 0458 89DA     		movl	%ebx, %edx
 469 045a 488D0D00 		leaq	.LC9(%rip), %rcx
 469      000000
 470 0461 4889CE   		movq	%rcx, %rsi
 471 0464 4889C7   		movq	%rax, %rdi
 472 0467 B8000000 		movl	$0, %eax
 472      00
 473 046c E8000000 		call	sprintf@PLT
 473      00
 119:gameboy.c     ****     for (int i = 0; i < 10; i++) {
 474              		.loc 1 119 30 discriminator 3
 475 0471 8385BCFB 		addl	$1, -1092(%rbp)
GAS LISTING /tmp/ccAJyxY4.s 			page 14


 475      FFFF01
 476              	.L16:
 119:gameboy.c     ****     for (int i = 0; i < 10; i++) {
 477              		.loc 1 119 23 discriminator 1
 478 0478 83BDBCFB 		cmpl	$9, -1092(%rbp)
 478      FFFF09
 479 047f 7E93     		jle	.L17
 480              	.LBE3:
 121:gameboy.c     ****     }
 122:gameboy.c     **** 
 123:gameboy.c     ****     printf("%s\n", buffer);
 481              		.loc 1 123 5
 482 0481 488D85D0 		leaq	-1072(%rbp), %rax
 482      FBFFFF
 483 0488 4889C7   		movq	%rax, %rdi
 484 048b E8000000 		call	puts@PLT
 484      00
 124:gameboy.c     ****     free(f_binary);
 485              		.loc 1 124 5
 486 0490 488B85C0 		movq	-1088(%rbp), %rax
 486      FBFFFF
 487 0497 4889C7   		movq	%rax, %rdi
 488 049a E8000000 		call	free@PLT
 488      00
 489              	.L13:
 125:gameboy.c     **** }
 490              		.loc 1 125 1
 491 049f 488B45D8 		movq	-40(%rbp), %rax
 492 04a3 64482B04 		subq	%fs:40, %rax
 492      25280000 
 492      00
 493 04ac 7405     		je	.L18
 494 04ae E8000000 		call	__stack_chk_fail@PLT
 494      00
 495              	.L18:
 496 04b3 488D65E8 		leaq	-24(%rbp), %rsp
 497 04b7 5B       		popq	%rbx
 498 04b8 415C     		popq	%r12
 499 04ba 415D     		popq	%r13
 500 04bc 5D       		popq	%rbp
 501              		.cfi_def_cfa 7, 8
 502 04bd C3       		ret
 503              		.cfi_endproc
 504              	.LFE9:
 505              		.size	gameboy_status, .-gameboy_status
 506              		.globl	display_register
 507              		.type	display_register, @function
 508              	display_register:
 509              	.LFB10:
 126:gameboy.c     **** 
 127:gameboy.c     **** 
 128:gameboy.c     **** char* display_register(uint8_t reg) {
 510              		.loc 1 128 37
 511              		.cfi_startproc
 512 04be F30F1EFA 		endbr64
 513 04c2 55       		pushq	%rbp
 514              		.cfi_def_cfa_offset 16
GAS LISTING /tmp/ccAJyxY4.s 			page 15


 515              		.cfi_offset 6, -16
 516 04c3 4889E5   		movq	%rsp, %rbp
 517              		.cfi_def_cfa_register 6
 518 04c6 4883EC20 		subq	$32, %rsp
 519 04ca 89F8     		movl	%edi, %eax
 520 04cc 8845EC   		movb	%al, -20(%rbp)
 129:gameboy.c     ****     // create a buffer to store the binary representation of the register
 130:gameboy.c     ****     char *buffer = (char *)calloc(10, sizeof(char));
 521              		.loc 1 130 28
 522 04cf BE010000 		movl	$1, %esi
 522      00
 523 04d4 BF0A0000 		movl	$10, %edi
 523      00
 524 04d9 E8000000 		call	calloc@PLT
 524      00
 525 04de 488945F8 		movq	%rax, -8(%rbp)
 131:gameboy.c     **** 
 132:gameboy.c     ****     if (buffer == NULL) {
 526              		.loc 1 132 8
 527 04e2 48837DF8 		cmpq	$0, -8(%rbp)
 527      00
 528 04e7 7516     		jne	.L20
 133:gameboy.c     ****         printf("Error: Memory allocation failed\n");
 529              		.loc 1 133 9
 530 04e9 488D0500 		leaq	.LC7(%rip), %rax
 530      000000
 531 04f0 4889C7   		movq	%rax, %rdi
 532 04f3 E8000000 		call	puts@PLT
 532      00
 134:gameboy.c     ****         return NULL;
 533              		.loc 1 134 16
 534 04f8 B8000000 		movl	$0, %eax
 534      00
 535 04fd EB75     		jmp	.L21
 536              	.L20:
 537              	.LBB4:
 135:gameboy.c     ****     }
 136:gameboy.c     **** 
 137:gameboy.c     ****     for (int i = 7; i >= 0; i--) {
 538              		.loc 1 137 14
 539 04ff C745F407 		movl	$7, -12(%rbp)
 539      000000
 540              		.loc 1 137 5
 541 0506 EB57     		jmp	.L22
 542              	.L26:
 138:gameboy.c     **** 
 139:gameboy.c     ****         buffer[7 - i + (i < 4)] = (reg >> i) & 1 ? '1' : '0';
 543              		.loc 1 139 40
 544 0508 0FB655EC 		movzbl	-20(%rbp), %edx
 545 050c 8B45F4   		movl	-12(%rbp), %eax
 546 050f 89C1     		movl	%eax, %ecx
 547 0511 D3FA     		sarl	%cl, %edx
 548 0513 89D0     		movl	%edx, %eax
 549              		.loc 1 139 46
 550 0515 83E001   		andl	$1, %eax
 551              		.loc 1 139 33
 552 0518 85C0     		testl	%eax, %eax
GAS LISTING /tmp/ccAJyxY4.s 			page 16


 553 051a 7407     		je	.L23
 554              		.loc 1 139 33 is_stmt 0 discriminator 1
 555 051c BA310000 		movl	$49, %edx
 555      00
 556 0521 EB05     		jmp	.L24
 557              	.L23:
 558              		.loc 1 139 33 discriminator 2
 559 0523 BA300000 		movl	$48, %edx
 559      00
 560              	.L24:
 561              		.loc 1 139 18 is_stmt 1 discriminator 4
 562 0528 B8070000 		movl	$7, %eax
 562      00
 563 052d 2B45F4   		subl	-12(%rbp), %eax
 564 0530 89C1     		movl	%eax, %ecx
 565              		.loc 1 139 27 discriminator 4
 566 0532 837DF403 		cmpl	$3, -12(%rbp)
 567 0536 0F9EC0   		setle	%al
 568 0539 0FB6C0   		movzbl	%al, %eax
 569              		.loc 1 139 22 discriminator 4
 570 053c 01C8     		addl	%ecx, %eax
 571 053e 4863C8   		movslq	%eax, %rcx
 572              		.loc 1 139 15 discriminator 4
 573 0541 488B45F8 		movq	-8(%rbp), %rax
 574 0545 4801C8   		addq	%rcx, %rax
 575              		.loc 1 139 33 discriminator 4
 576 0548 8810     		movb	%dl, (%rax)
 140:gameboy.c     ****         if (i == 4) {
 577              		.loc 1 140 12 discriminator 4
 578 054a 837DF404 		cmpl	$4, -12(%rbp)
 579 054e 750B     		jne	.L25
 141:gameboy.c     ****             buffer[4] = '_';
 580              		.loc 1 141 19
 581 0550 488B45F8 		movq	-8(%rbp), %rax
 582 0554 4883C004 		addq	$4, %rax
 583              		.loc 1 141 23
 584 0558 C6005F   		movb	$95, (%rax)
 585              	.L25:
 137:gameboy.c     **** 
 586              		.loc 1 137 30 discriminator 2
 587 055b 836DF401 		subl	$1, -12(%rbp)
 588              	.L22:
 137:gameboy.c     **** 
 589              		.loc 1 137 23 discriminator 1
 590 055f 837DF400 		cmpl	$0, -12(%rbp)
 591 0563 79A3     		jns	.L26
 592              	.LBE4:
 142:gameboy.c     ****         }
 143:gameboy.c     ****     }
 144:gameboy.c     **** 
 145:gameboy.c     ****     buffer[9] = '\0';
 593              		.loc 1 145 11
 594 0565 488B45F8 		movq	-8(%rbp), %rax
 595 0569 4883C009 		addq	$9, %rax
 596              		.loc 1 145 15
 597 056d C60000   		movb	$0, (%rax)
 146:gameboy.c     ****     return buffer;
GAS LISTING /tmp/ccAJyxY4.s 			page 17


 598              		.loc 1 146 12
 599 0570 488B45F8 		movq	-8(%rbp), %rax
 600              	.L21:
 147:gameboy.c     **** }
 601              		.loc 1 147 1
 602 0574 C9       		leave
 603              		.cfi_def_cfa 7, 8
 604 0575 C3       		ret
 605              		.cfi_endproc
 606              	.LFE10:
 607              		.size	display_register, .-display_register
 608              		.section	.rodata
 609 0107 00       		.align 8
 610              	.LC10:
 611 0108 4572726F 		.string	"Error: Address %04X out of bounds\n"
 611      723A2041 
 611      64647265 
 611      73732025 
 611      30345820 
 612              		.text
 613              		.globl	gameboy_memset
 614              		.type	gameboy_memset, @function
 615              	gameboy_memset:
 616              	.LFB11:
 148:gameboy.c     **** 
 149:gameboy.c     **** 
 150:gameboy.c     **** void gameboy_memset(GAMEBOY *gb, uint16_t addr, uint8_t val) {
 617              		.loc 1 150 62
 618              		.cfi_startproc
 619 0576 F30F1EFA 		endbr64
 620 057a 55       		pushq	%rbp
 621              		.cfi_def_cfa_offset 16
 622              		.cfi_offset 6, -16
 623 057b 4889E5   		movq	%rsp, %rbp
 624              		.cfi_def_cfa_register 6
 625 057e 4883EC10 		subq	$16, %rsp
 626 0582 48897DF8 		movq	%rdi, -8(%rbp)
 627 0586 89F0     		movl	%esi, %eax
 628 0588 668945F4 		movw	%ax, -12(%rbp)
 629 058c 89D0     		movl	%edx, %eax
 630 058e 8845F0   		movb	%al, -16(%rbp)
 151:gameboy.c     ****     
 152:gameboy.c     ****     // ROM0
 153:gameboy.c     ****     if (0x0000 <= addr && addr < 0x4000) {
 631              		.loc 1 153 8
 632 0591 66817DF4 		cmpw	$16383, -12(%rbp)
 632      FF3F
 633 0597 0F862302 		jbe	.L40
 633      0000
 154:gameboy.c     ****         return;
 155:gameboy.c     ****     }
 156:gameboy.c     ****     // ROMX 
 157:gameboy.c     ****     if (0x4000 <= addr && addr < 0x8000) {
 634              		.loc 1 157 8
 635 059d 66817DF4 		cmpw	$16383, -12(%rbp)
 635      FF3F
 636 05a3 760D     		jbe	.L30
GAS LISTING /tmp/ccAJyxY4.s 			page 18


 637              		.loc 1 157 32 discriminator 1
 638 05a5 0FB745F4 		movzwl	-12(%rbp), %eax
 639              		.loc 1 157 24 discriminator 1
 640 05a9 6685C0   		testw	%ax, %ax
 641 05ac 0F891102 		jns	.L41
 641      0000
 642              	.L30:
 158:gameboy.c     ****         return;
 159:gameboy.c     ****     }
 160:gameboy.c     ****     
 161:gameboy.c     ****     // VRAM
 162:gameboy.c     ****     if (0x8000 <= addr && addr < 0xA000) {
 643              		.loc 1 162 16
 644 05b2 0FB745F4 		movzwl	-12(%rbp), %eax
 645              		.loc 1 162 8
 646 05b6 6685C0   		testw	%ax, %ax
 647 05b9 793A     		jns	.L31
 648              		.loc 1 162 24 discriminator 1
 649 05bb 66817DF4 		cmpw	$-24577, -12(%rbp)
 649      FF9F
 650 05c1 7732     		ja	.L31
 163:gameboy.c     ****         gb->vram[addr - 0x8000 + (gb->current_vram_bank * GAMEBOY_VRAM_BANK_SIZE)] = val;
 651              		.loc 1 163 11
 652 05c3 488B45F8 		movq	-8(%rbp), %rax
 653 05c7 488B5018 		movq	24(%rax), %rdx
 654              		.loc 1 163 23
 655 05cb 0FB745F4 		movzwl	-12(%rbp), %eax
 656 05cf 8D880080 		leal	-32768(%rax), %ecx
 656      FFFF
 657              		.loc 1 163 37
 658 05d5 488B45F8 		movq	-8(%rbp), %rax
 659 05d9 0FB64053 		movzbl	83(%rax), %eax
 660 05dd 0FB6C0   		movzbl	%al, %eax
 661              		.loc 1 163 57
 662 05e0 C1E00D   		sall	$13, %eax
 663              		.loc 1 163 32
 664 05e3 01C8     		addl	%ecx, %eax
 665 05e5 4898     		cltq
 666              		.loc 1 163 17
 667 05e7 4801C2   		addq	%rax, %rdx
 668              		.loc 1 163 84
 669 05ea 0FB645F0 		movzbl	-16(%rbp), %eax
 670 05ee 8802     		movb	%al, (%rdx)
 164:gameboy.c     ****         return;
 671              		.loc 1 164 9
 672 05f0 E9CF0100 		jmp	.L27
 672      00
 673              	.L31:
 165:gameboy.c     ****     } 
 166:gameboy.c     ****     // SRAMX
 167:gameboy.c     ****     if (0xA000 <= addr && addr < 0xC000) {
 674              		.loc 1 167 8
 675 05f5 66817DF4 		cmpw	$-24577, -12(%rbp)
 675      FF9F
 676 05fb 763A     		jbe	.L32
 677              		.loc 1 167 24 discriminator 1
 678 05fd 66817DF4 		cmpw	$-16385, -12(%rbp)
GAS LISTING /tmp/ccAJyxY4.s 			page 19


 678      FFBF
 679 0603 7732     		ja	.L32
 168:gameboy.c     ****         gb->sram[addr - 0xA000 + (gb->current_sram_bank * GAMEBOY_RAM_BANK_SIZE)] = val;
 680              		.loc 1 168 11
 681 0605 488B45F8 		movq	-8(%rbp), %rax
 682 0609 488B5020 		movq	32(%rax), %rdx
 683              		.loc 1 168 23
 684 060d 0FB745F4 		movzwl	-12(%rbp), %eax
 685 0611 8D880060 		leal	-40960(%rax), %ecx
 685      FFFF
 686              		.loc 1 168 37
 687 0617 488B45F8 		movq	-8(%rbp), %rax
 688 061b 0FB64051 		movzbl	81(%rax), %eax
 689 061f 0FB6C0   		movzbl	%al, %eax
 690              		.loc 1 168 57
 691 0622 C1E00D   		sall	$13, %eax
 692              		.loc 1 168 32
 693 0625 01C8     		addl	%ecx, %eax
 694 0627 4898     		cltq
 695              		.loc 1 168 17
 696 0629 4801C2   		addq	%rax, %rdx
 697              		.loc 1 168 83
 698 062c 0FB645F0 		movzbl	-16(%rbp), %eax
 699 0630 8802     		movb	%al, (%rdx)
 169:gameboy.c     ****         return;
 700              		.loc 1 169 9
 701 0632 E98D0100 		jmp	.L27
 701      00
 702              	.L32:
 170:gameboy.c     ****     }
 171:gameboy.c     **** 
 172:gameboy.c     ****     // WRAM0
 173:gameboy.c     ****     if (0xC000 <= addr && addr < 0xD000) {
 703              		.loc 1 173 8
 704 0637 66817DF4 		cmpw	$-16385, -12(%rbp)
 704      FFBF
 705 063d 7628     		jbe	.L33
 706              		.loc 1 173 24 discriminator 1
 707 063f 66817DF4 		cmpw	$-12289, -12(%rbp)
 707      FFCF
 708 0645 7720     		ja	.L33
 174:gameboy.c     ****         gb->wram[addr - 0xC000] = val;
 709              		.loc 1 174 11
 710 0647 488B45F8 		movq	-8(%rbp), %rax
 711 064b 488B5028 		movq	40(%rax), %rdx
 712              		.loc 1 174 17
 713 064f 0FB745F4 		movzwl	-12(%rbp), %eax
 714 0653 482D00C0 		subq	$49152, %rax
 714      0000
 715 0659 4801C2   		addq	%rax, %rdx
 716              		.loc 1 174 33
 717 065c 0FB645F0 		movzbl	-16(%rbp), %eax
 718 0660 8802     		movb	%al, (%rdx)
 175:gameboy.c     ****         return;
 719              		.loc 1 175 9
 720 0662 E95D0100 		jmp	.L27
 720      00
GAS LISTING /tmp/ccAJyxY4.s 			page 20


 721              	.L33:
 176:gameboy.c     ****     }
 177:gameboy.c     **** 
 178:gameboy.c     ****     // WRAMX
 179:gameboy.c     ****     if (0xD000 <= addr && addr < 0xE000) {
 722              		.loc 1 179 8
 723 0667 66817DF4 		cmpw	$-12289, -12(%rbp)
 723      FFCF
 724 066d 7644     		jbe	.L34
 725              		.loc 1 179 24 discriminator 1
 726 066f 66817DF4 		cmpw	$-8193, -12(%rbp)
 726      FFDF
 727 0675 773C     		ja	.L34
 180:gameboy.c     ****         gb->wram[addr - 0xD000 + (MAX(gb->current_wram_bank, 1) * GAMEBOY_RAM_BANK_SIZE)] = val;
 728              		.loc 1 180 11
 729 0677 488B45F8 		movq	-8(%rbp), %rax
 730 067b 488B5028 		movq	40(%rax), %rdx
 731              		.loc 1 180 23
 732 067f 0FB745F4 		movzwl	-12(%rbp), %eax
 733 0683 8DB00030 		leal	-53248(%rax), %esi
 733      FFFF
 734              		.loc 1 180 35
 735 0689 488B45F8 		movq	-8(%rbp), %rax
 736 068d 0FB64052 		movzbl	82(%rax), %eax
 737 0691 B9010000 		movl	$1, %ecx
 737      00
 738 0696 84C0     		testb	%al, %al
 739 0698 0F44C1   		cmove	%ecx, %eax
 740 069b 0FB6C0   		movzbl	%al, %eax
 741              		.loc 1 180 65
 742 069e C1E00D   		sall	$13, %eax
 743              		.loc 1 180 32
 744 06a1 01F0     		addl	%esi, %eax
 745 06a3 4898     		cltq
 746              		.loc 1 180 17
 747 06a5 4801C2   		addq	%rax, %rdx
 748              		.loc 1 180 91
 749 06a8 0FB645F0 		movzbl	-16(%rbp), %eax
 750 06ac 8802     		movb	%al, (%rdx)
 181:gameboy.c     ****         return;
 751              		.loc 1 181 9
 752 06ae E9110100 		jmp	.L27
 752      00
 753              	.L34:
 182:gameboy.c     ****     }
 183:gameboy.c     **** 
 184:gameboy.c     ****     // ECHO
 185:gameboy.c     ****     if (0xE000 <= addr && addr < 0xFE00) {
 754              		.loc 1 185 8
 755 06b3 66817DF4 		cmpw	$-8193, -12(%rbp)
 755      FFDF
 756 06b9 7644     		jbe	.L35
 757              		.loc 1 185 24 discriminator 1
 758 06bb 66817DF4 		cmpw	$-513, -12(%rbp)
 758      FFFD
 759 06c1 773C     		ja	.L35
 186:gameboy.c     ****         gb->wram[addr - 0xE000 - 0xC000 + (MAX(gb->current_wram_bank, 1) * GAMEBOY_RAM_BANK_SIZE)] 
GAS LISTING /tmp/ccAJyxY4.s 			page 21


 760              		.loc 1 186 11
 761 06c3 488B45F8 		movq	-8(%rbp), %rax
 762 06c7 488B5028 		movq	40(%rax), %rdx
 763              		.loc 1 186 32
 764 06cb 0FB745F4 		movzwl	-12(%rbp), %eax
 765 06cf 8DB00060 		leal	-106496(%rax), %esi
 765      FEFF
 766              		.loc 1 186 44
 767 06d5 488B45F8 		movq	-8(%rbp), %rax
 768 06d9 0FB64052 		movzbl	82(%rax), %eax
 769 06dd B9010000 		movl	$1, %ecx
 769      00
 770 06e2 84C0     		testb	%al, %al
 771 06e4 0F44C1   		cmove	%ecx, %eax
 772 06e7 0FB6C0   		movzbl	%al, %eax
 773              		.loc 1 186 74
 774 06ea C1E00D   		sall	$13, %eax
 775              		.loc 1 186 41
 776 06ed 01F0     		addl	%esi, %eax
 777 06ef 4898     		cltq
 778              		.loc 1 186 17
 779 06f1 4801C2   		addq	%rax, %rdx
 780              		.loc 1 186 100
 781 06f4 0FB645F0 		movzbl	-16(%rbp), %eax
 782 06f8 8802     		movb	%al, (%rdx)
 187:gameboy.c     ****         return; 
 783              		.loc 1 187 9
 784 06fa E9C50000 		jmp	.L27
 784      00
 785              	.L35:
 188:gameboy.c     ****     }
 189:gameboy.c     **** 
 190:gameboy.c     ****     // OAM
 191:gameboy.c     ****     if (0xFE00 <= addr && addr < 0xFEA0) {
 786              		.loc 1 191 8
 787 06ff 66817DF4 		cmpw	$-513, -12(%rbp)
 787      FFFD
 788 0705 7628     		jbe	.L36
 789              		.loc 1 191 24 discriminator 1
 790 0707 66817DF4 		cmpw	$-353, -12(%rbp)
 790      9FFE
 791 070d 7720     		ja	.L36
 192:gameboy.c     ****         gb->oam[addr - 0xFE00] = val;
 792              		.loc 1 192 11
 793 070f 488B45F8 		movq	-8(%rbp), %rax
 794 0713 488B5030 		movq	48(%rax), %rdx
 795              		.loc 1 192 16
 796 0717 0FB745F4 		movzwl	-12(%rbp), %eax
 797 071b 482D00FE 		subq	$65024, %rax
 797      0000
 798 0721 4801C2   		addq	%rax, %rdx
 799              		.loc 1 192 32
 800 0724 0FB645F0 		movzbl	-16(%rbp), %eax
 801 0728 8802     		movb	%al, (%rdx)
 193:gameboy.c     ****         return;
 802              		.loc 1 193 9
 803 072a E9950000 		jmp	.L27
GAS LISTING /tmp/ccAJyxY4.s 			page 22


 803      00
 804              	.L36:
 194:gameboy.c     ****     }
 195:gameboy.c     ****     // UNUSED
 196:gameboy.c     ****     // IO
 197:gameboy.c     **** 
 198:gameboy.c     ****     if (0xFF00 <= addr && addr < 0xFF80) {
 805              		.loc 1 198 8
 806 072f 66817DF4 		cmpw	$-257, -12(%rbp)
 806      FFFE
 807 0735 7625     		jbe	.L37
 808              		.loc 1 198 24 discriminator 1
 809 0737 66817DF4 		cmpw	$-129, -12(%rbp)
 809      7FFF
 810 073d 771D     		ja	.L37
 199:gameboy.c     ****         gb->io[addr - 0xFF00] = val;
 811              		.loc 1 199 11
 812 073f 488B45F8 		movq	-8(%rbp), %rax
 813 0743 488B5038 		movq	56(%rax), %rdx
 814              		.loc 1 199 15
 815 0747 0FB745F4 		movzwl	-12(%rbp), %eax
 816 074b 482D00FF 		subq	$65280, %rax
 816      0000
 817 0751 4801C2   		addq	%rax, %rdx
 818              		.loc 1 199 31
 819 0754 0FB645F0 		movzbl	-16(%rbp), %eax
 820 0758 8802     		movb	%al, (%rdx)
 200:gameboy.c     ****         return;
 821              		.loc 1 200 9
 822 075a EB68     		jmp	.L27
 823              	.L37:
 201:gameboy.c     ****     }
 202:gameboy.c     **** 
 203:gameboy.c     ****     // HRAM
 204:gameboy.c     ****     if (0xFF80 <= addr && addr < 0xFFFF) {
 824              		.loc 1 204 8
 825 075c 66817DF4 		cmpw	$-129, -12(%rbp)
 825      7FFF
 826 0762 7624     		jbe	.L38
 827              		.loc 1 204 24 discriminator 1
 828 0764 66837DF4 		cmpw	$-1, -12(%rbp)
 828      FF
 829 0769 741D     		je	.L38
 205:gameboy.c     ****         gb->hram[addr - 0xFF80] = val;
 830              		.loc 1 205 11
 831 076b 488B45F8 		movq	-8(%rbp), %rax
 832 076f 488B5040 		movq	64(%rax), %rdx
 833              		.loc 1 205 17
 834 0773 0FB745F4 		movzwl	-12(%rbp), %eax
 835 0777 482D80FF 		subq	$65408, %rax
 835      0000
 836 077d 4801C2   		addq	%rax, %rdx
 837              		.loc 1 205 33
 838 0780 0FB645F0 		movzbl	-16(%rbp), %eax
 839 0784 8802     		movb	%al, (%rdx)
 206:gameboy.c     ****         return;
 840              		.loc 1 206 9
GAS LISTING /tmp/ccAJyxY4.s 			page 23


 841 0786 EB3C     		jmp	.L27
 842              	.L38:
 207:gameboy.c     ****     }
 208:gameboy.c     **** 
 209:gameboy.c     ****     // IE
 210:gameboy.c     ****     if (addr == 0xFFFF) {
 843              		.loc 1 210 8
 844 0788 66837DF4 		cmpw	$-1, -12(%rbp)
 844      FF
 845 078d 750D     		jne	.L39
 211:gameboy.c     ****         gb->ime = val;
 846              		.loc 1 211 17
 847 078f 488B45F8 		movq	-8(%rbp), %rax
 848 0793 0FB655F0 		movzbl	-16(%rbp), %edx
 849 0797 88500C   		movb	%dl, 12(%rax)
 212:gameboy.c     ****         return;
 850              		.loc 1 212 9
 851 079a EB28     		jmp	.L27
 852              	.L39:
 213:gameboy.c     ****     }
 214:gameboy.c     **** 
 215:gameboy.c     ****     printf("Error: Address %04X out of bounds\n", addr);
 853              		.loc 1 215 5
 854 079c 0FB745F4 		movzwl	-12(%rbp), %eax
 855 07a0 89C6     		movl	%eax, %esi
 856 07a2 488D0500 		leaq	.LC10(%rip), %rax
 856      000000
 857 07a9 4889C7   		movq	%rax, %rdi
 858 07ac B8000000 		movl	$0, %eax
 858      00
 859 07b1 E8000000 		call	printf@PLT
 859      00
 216:gameboy.c     ****     exit(1);
 860              		.loc 1 216 5
 861 07b6 BF010000 		movl	$1, %edi
 861      00
 862 07bb E8000000 		call	exit@PLT
 862      00
 863              	.L40:
 154:gameboy.c     ****     }
 864              		.loc 1 154 9
 865 07c0 90       		nop
 866 07c1 EB01     		jmp	.L27
 867              	.L41:
 158:gameboy.c     ****     }
 868              		.loc 1 158 9
 869 07c3 90       		nop
 870              	.L27:
 217:gameboy.c     **** }
 871              		.loc 1 217 1
 872 07c4 C9       		leave
 873              		.cfi_def_cfa 7, 8
 874 07c5 C3       		ret
 875              		.cfi_endproc
 876              	.LFE11:
 877              		.size	gameboy_memset, .-gameboy_memset
 878              		.globl	gameboy_free
GAS LISTING /tmp/ccAJyxY4.s 			page 24


 879              		.type	gameboy_free, @function
 880              	gameboy_free:
 881              	.LFB12:
 218:gameboy.c     **** 
 219:gameboy.c     **** void gameboy_free(GAMEBOY *gb) {
 882              		.loc 1 219 32
 883              		.cfi_startproc
 884 07c6 F30F1EFA 		endbr64
 885 07ca 55       		pushq	%rbp
 886              		.cfi_def_cfa_offset 16
 887              		.cfi_offset 6, -16
 888 07cb 4889E5   		movq	%rsp, %rbp
 889              		.cfi_def_cfa_register 6
 890 07ce 4883EC10 		subq	$16, %rsp
 891 07d2 48897DF8 		movq	%rdi, -8(%rbp)
 220:gameboy.c     ****     if (gb -> rom != NULL) {
 892              		.loc 1 220 12
 893 07d6 488B45F8 		movq	-8(%rbp), %rax
 894 07da 488B4010 		movq	16(%rax), %rax
 895              		.loc 1 220 8
 896 07de 4885C0   		testq	%rax, %rax
 897 07e1 7410     		je	.L43
 221:gameboy.c     ****         free(gb->rom);
 898              		.loc 1 221 16
 899 07e3 488B45F8 		movq	-8(%rbp), %rax
 900 07e7 488B4010 		movq	16(%rax), %rax
 901              		.loc 1 221 9
 902 07eb 4889C7   		movq	%rax, %rdi
 903 07ee E8000000 		call	free@PLT
 903      00
 904              	.L43:
 222:gameboy.c     ****     }
 223:gameboy.c     ****     gb->rom = NULL;
 905              		.loc 1 223 13
 906 07f3 488B45F8 		movq	-8(%rbp), %rax
 907 07f7 48C74010 		movq	$0, 16(%rax)
 907      00000000 
 224:gameboy.c     **** 
 225:gameboy.c     ****     if (gb->vram != NULL) {
 908              		.loc 1 225 11
 909 07ff 488B45F8 		movq	-8(%rbp), %rax
 910 0803 488B4018 		movq	24(%rax), %rax
 911              		.loc 1 225 8
 912 0807 4885C0   		testq	%rax, %rax
 913 080a 7410     		je	.L44
 226:gameboy.c     ****         free(gb->vram);
 914              		.loc 1 226 16
 915 080c 488B45F8 		movq	-8(%rbp), %rax
 916 0810 488B4018 		movq	24(%rax), %rax
 917              		.loc 1 226 9
 918 0814 4889C7   		movq	%rax, %rdi
 919 0817 E8000000 		call	free@PLT
 919      00
 920              	.L44:
 227:gameboy.c     ****     }
 228:gameboy.c     **** 
 229:gameboy.c     ****     gb->vram = NULL;
GAS LISTING /tmp/ccAJyxY4.s 			page 25


 921              		.loc 1 229 14
 922 081c 488B45F8 		movq	-8(%rbp), %rax
 923 0820 48C74018 		movq	$0, 24(%rax)
 923      00000000 
 230:gameboy.c     **** 
 231:gameboy.c     ****     if (gb->sram != NULL) {
 924              		.loc 1 231 11
 925 0828 488B45F8 		movq	-8(%rbp), %rax
 926 082c 488B4020 		movq	32(%rax), %rax
 927              		.loc 1 231 8
 928 0830 4885C0   		testq	%rax, %rax
 929 0833 7410     		je	.L45
 232:gameboy.c     ****         free(gb->sram);
 930              		.loc 1 232 16
 931 0835 488B45F8 		movq	-8(%rbp), %rax
 932 0839 488B4020 		movq	32(%rax), %rax
 933              		.loc 1 232 9
 934 083d 4889C7   		movq	%rax, %rdi
 935 0840 E8000000 		call	free@PLT
 935      00
 936              	.L45:
 233:gameboy.c     ****     }
 234:gameboy.c     **** 
 235:gameboy.c     ****     gb->sram = NULL;
 937              		.loc 1 235 14
 938 0845 488B45F8 		movq	-8(%rbp), %rax
 939 0849 48C74020 		movq	$0, 32(%rax)
 939      00000000 
 236:gameboy.c     **** 
 237:gameboy.c     **** 
 238:gameboy.c     **** }
 940              		.loc 1 238 1
 941 0851 90       		nop
 942 0852 C9       		leave
 943              		.cfi_def_cfa 7, 8
 944 0853 C3       		ret
 945              		.cfi_endproc
 946              	.LFE12:
 947              		.size	gameboy_free, .-gameboy_free
 948              		.globl	init_cpu
 949              		.type	init_cpu, @function
 950              	init_cpu:
 951              	.LFB13:
 239:gameboy.c     **** 
 240:gameboy.c     **** 
 241:gameboy.c     **** /*-------------------- CPU FUNCTIONS --------------------------- */
 242:gameboy.c     **** void init_cpu(GAMEBOY *gb) {
 952              		.loc 1 242 28
 953              		.cfi_startproc
 954 0854 F30F1EFA 		endbr64
 955 0858 55       		pushq	%rbp
 956              		.cfi_def_cfa_offset 16
 957              		.cfi_offset 6, -16
 958 0859 4889E5   		movq	%rsp, %rbp
 959              		.cfi_def_cfa_register 6
 960 085c 48897DF8 		movq	%rdi, -8(%rbp)
 243:gameboy.c     ****     if (gb->cgb_mode) {
GAS LISTING /tmp/ccAJyxY4.s 			page 26


 961              		.loc 1 243 11
 962 0860 488B45F8 		movq	-8(%rbp), %rax
 963 0864 0FB64054 		movzbl	84(%rax), %eax
 964              		.loc 1 243 8
 965 0868 84C0     		testb	%al, %al
 966 086a 7455     		je	.L47
 244:gameboy.c     ****         gb->a = 0x11;
 967              		.loc 1 244 15
 968 086c 488B45F8 		movq	-8(%rbp), %rax
 969 0870 C60011   		movb	$17, (%rax)
 245:gameboy.c     ****         gb->f = 0b10000000;
 970              		.loc 1 245 15
 971 0873 488B45F8 		movq	-8(%rbp), %rax
 972 0877 C6400180 		movb	$-128, 1(%rax)
 246:gameboy.c     ****         gb->b = 0x00;
 973              		.loc 1 246 15
 974 087b 488B45F8 		movq	-8(%rbp), %rax
 975 087f C6400200 		movb	$0, 2(%rax)
 247:gameboy.c     ****         gb->c = 0x00;
 976              		.loc 1 247 15
 977 0883 488B45F8 		movq	-8(%rbp), %rax
 978 0887 C6400300 		movb	$0, 3(%rax)
 248:gameboy.c     ****         gb->d = 0xFF;
 979              		.loc 1 248 15
 980 088b 488B45F8 		movq	-8(%rbp), %rax
 981 088f C64004FF 		movb	$-1, 4(%rax)
 249:gameboy.c     ****         gb->e = 0x56;
 982              		.loc 1 249 15
 983 0893 488B45F8 		movq	-8(%rbp), %rax
 984 0897 C6400556 		movb	$86, 5(%rax)
 250:gameboy.c     ****         gb->h = 0x00;
 985              		.loc 1 250 15
 986 089b 488B45F8 		movq	-8(%rbp), %rax
 987 089f C6400600 		movb	$0, 6(%rax)
 251:gameboy.c     ****         gb->l = 0x0D;
 988              		.loc 1 251 15
 989 08a3 488B45F8 		movq	-8(%rbp), %rax
 990 08a7 C640070D 		movb	$13, 7(%rax)
 252:gameboy.c     ****         gb->sp = 0xFFFE;
 991              		.loc 1 252 16
 992 08ab 488B45F8 		movq	-8(%rbp), %rax
 993 08af 66C74008 		movw	$-2, 8(%rax)
 993      FEFF
 253:gameboy.c     ****         gb->pc = 0x0100;
 994              		.loc 1 253 16
 995 08b5 488B45F8 		movq	-8(%rbp), %rax
 996 08b9 66C7400A 		movw	$256, 10(%rax)
 996      0001
 254:gameboy.c     ****     } else {
 255:gameboy.c     ****         gb->a = 0x01;
 256:gameboy.c     ****         gb->f = 0b10000000;
 257:gameboy.c     ****         gb->b = 0x00;
 258:gameboy.c     ****         gb->c = 0x13;
 259:gameboy.c     ****         gb->d = 0x00;
 260:gameboy.c     ****         gb->e = 0xD8;
 261:gameboy.c     ****         gb->h = 0x01;
 262:gameboy.c     ****         gb->l = 0x4D;
GAS LISTING /tmp/ccAJyxY4.s 			page 27


 263:gameboy.c     ****         gb->sp = 0xFFFE;
 264:gameboy.c     ****         gb->pc = 0x0100;
 265:gameboy.c     ****     }
 266:gameboy.c     **** }
 997              		.loc 1 266 1
 998 08bf EB53     		jmp	.L49
 999              	.L47:
 255:gameboy.c     ****         gb->f = 0b10000000;
 1000              		.loc 1 255 15
 1001 08c1 488B45F8 		movq	-8(%rbp), %rax
 1002 08c5 C60001   		movb	$1, (%rax)
 256:gameboy.c     ****         gb->b = 0x00;
 1003              		.loc 1 256 15
 1004 08c8 488B45F8 		movq	-8(%rbp), %rax
 1005 08cc C6400180 		movb	$-128, 1(%rax)
 257:gameboy.c     ****         gb->c = 0x13;
 1006              		.loc 1 257 15
 1007 08d0 488B45F8 		movq	-8(%rbp), %rax
 1008 08d4 C6400200 		movb	$0, 2(%rax)
 258:gameboy.c     ****         gb->d = 0x00;
 1009              		.loc 1 258 15
 1010 08d8 488B45F8 		movq	-8(%rbp), %rax
 1011 08dc C6400313 		movb	$19, 3(%rax)
 259:gameboy.c     ****         gb->e = 0xD8;
 1012              		.loc 1 259 15
 1013 08e0 488B45F8 		movq	-8(%rbp), %rax
 1014 08e4 C6400400 		movb	$0, 4(%rax)
 260:gameboy.c     ****         gb->h = 0x01;
 1015              		.loc 1 260 15
 1016 08e8 488B45F8 		movq	-8(%rbp), %rax
 1017 08ec C64005D8 		movb	$-40, 5(%rax)
 261:gameboy.c     ****         gb->l = 0x4D;
 1018              		.loc 1 261 15
 1019 08f0 488B45F8 		movq	-8(%rbp), %rax
 1020 08f4 C6400601 		movb	$1, 6(%rax)
 262:gameboy.c     ****         gb->sp = 0xFFFE;
 1021              		.loc 1 262 15
 1022 08f8 488B45F8 		movq	-8(%rbp), %rax
 1023 08fc C640074D 		movb	$77, 7(%rax)
 263:gameboy.c     ****         gb->pc = 0x0100;
 1024              		.loc 1 263 16
 1025 0900 488B45F8 		movq	-8(%rbp), %rax
 1026 0904 66C74008 		movw	$-2, 8(%rax)
 1026      FEFF
 264:gameboy.c     ****     }
 1027              		.loc 1 264 16
 1028 090a 488B45F8 		movq	-8(%rbp), %rax
 1029 090e 66C7400A 		movw	$256, 10(%rax)
 1029      0001
 1030              	.L49:
 1031              		.loc 1 266 1
 1032 0914 90       		nop
 1033 0915 5D       		popq	%rbp
 1034              		.cfi_def_cfa 7, 8
 1035 0916 C3       		ret
 1036              		.cfi_endproc
 1037              	.LFE13:
GAS LISTING /tmp/ccAJyxY4.s 			page 28


 1038              		.size	init_cpu, .-init_cpu
 1039              	.Letext0:
 1040              		.file 2 "/usr/lib/gcc/x86_64-linux-gnu/11/include/stddef.h"
 1041              		.file 3 "/usr/include/x86_64-linux-gnu/bits/types.h"
 1042              		.file 4 "/usr/include/x86_64-linux-gnu/bits/types/struct_FILE.h"
 1043              		.file 5 "/usr/include/x86_64-linux-gnu/bits/types/FILE.h"
 1044              		.file 6 "/usr/include/x86_64-linux-gnu/bits/stdint-uintn.h"
 1045              		.file 7 "/usr/include/x86_64-linux-gnu/bits/types/time_t.h"
 1046              		.file 8 "gameboy.h"
 1047              		.file 9 "/usr/include/stdlib.h"
 1048              		.file 10 "/usr/include/string.h"
 1049              		.file 11 "/usr/include/stdio.h"
 1050              		.file 12 "/usr/include/time.h"
 2901 0023 2F686F6D 		.section	.note.GNU-stack,"",@progbits
 2901      652F6475 
 2901      79732F44 
 2901      6F63756D 
 2901      656E7473 
 2902              		.section	.note.gnu.property,"a"
 2903              		.align 8
 2904 0000 04000000 		.long	1f - 0f
 2905 0004 10000000 		.long	4f - 1f
 2906 0008 05000000 		.long	5
 2907              	0:
 2908 000c 474E5500 		.string	"GNU"
 2909              	1:
 2910              		.align 8
 2911 0010 020000C0 		.long	0xc0000002
 2912 0014 04000000 		.long	3f - 2f
 2913              	2:
 2914 0018 03000000 		.long	0x3
 2915              	3:
 2916 001c 00000000 		.align 8
 2917              	4:
GAS LISTING /tmp/ccAJyxY4.s 			page 66

